; Function Attrs: nofree nounwind uwtable
define noalias noundef ptr @Pdr_InvCounts(ptr noundef readonly captures(none) %0) local_unnamed_addr #3 {
  %2 = getelementptr i8, ptr %0, i64 8
  %.val17 = load ptr, ptr %2, align 8
  %3 = getelementptr i8, ptr %0, i64 4
  %.val18 = load i32, ptr %3, align 4
  %4 = sext i32 %.val18 to i64
  %5 = getelementptr i32, ptr %.val17, i64 %4
  %6 = getelementptr i8, ptr %5, i64 -4
  %7 = load i32, ptr %6, align 4
  %8 = tail call noalias dereferenceable_or_null(16) ptr @malloc(i64 noundef 16) #20
  %9 = add i32 %7, -1
  %or.cond.i.i = icmp ult i32 %9, 15
  %spec.store.select.i.i = select i1 %or.cond.i.i, i32 16, i32 %7
  %10 = getelementptr inbounds nuw i8, ptr %8, i64 4
  store i32 %spec.store.select.i.i, ptr %8, align 8
  %.not.i.i = icmp eq i32 %spec.store.select.i.i, 0
  br i1 %.not.i.i, label %Vec_IntAlloc.exit.thread.i, label %Vec_IntAlloc.exit.i

Vec_IntAlloc.exit.thread.i:                       ; preds = %1
  %11 = getelementptr inbounds nuw i8, ptr %8, i64 8
  store ptr null, ptr %11, align 8
  store i32 %7, ptr %10, align 4
  br label %Vec_IntStart.exit

Vec_IntAlloc.exit.i:                              ; preds = %1
  %12 = sext i32 %spec.store.select.i.i to i64
  %13 = shl nsw i64 %12, 2
  %14 = tail call noalias ptr @malloc(i64 noundef %13) #20
  %15 = getelementptr inbounds nuw i8, ptr %8, i64 8
  store ptr %14, ptr %15, align 8
  store i32 %7, ptr %10, align 4
  %.not.i = icmp eq ptr %14, null
  br i1 %.not.i, label %Vec_IntStart.exit, label %16

16:                                               ; preds = %Vec_IntAlloc.exit.i
  %17 = sext i32 %7 to i64
  %18 = shl nsw i64 %17, 2
  tail call void @llvm.memset.p0.i64(ptr nonnull align 4 %14, i8 0, i64 %18, i1 false)
  br label %Vec_IntStart.exit

Vec_IntStart.exit:                                ; preds = %Vec_IntAlloc.exit.thread.i, %Vec_IntAlloc.exit.i, %16
  %.val = phi ptr [ null, %Vec_IntAlloc.exit.thread.i ], [ null, %Vec_IntAlloc.exit.i ], [ %14, %16 ]
  %19 = load i32, ptr %.val17, align 4
  %20 = icmp sgt i32 %19, 0
  br i1 %20, label %.preheader, label %._crit_edge24

.preheader:                                       ; preds = %Vec_IntStart.exit, %._crit_edge
  %.val17.pn = phi ptr [ %34, %._crit_edge ], [ %.val17, %Vec_IntStart.exit ]
  %.022 = phi i32 [ %33, %._crit_edge ], [ 0, %Vec_IntStart.exit ]
  %.01523 = getelementptr i8, ptr %.val17.pn, i64 4
  %21 = load i32, ptr %.01523, align 4
  %22 = icmp sgt i32 %21, 0
  br i1 %22, label %.lr.ph, label %.preheader.._crit_edge_crit_edge

.preheader.._crit_edge_crit_edge:                 ; preds = %.preheader
  %.pre = sext i32 %21 to i64
  br label %._crit_edge

.lr.ph:                                           ; preds = %.preheader
  %23 = zext nneg i32 %21 to i64
  br label %24

24:                                               ; preds = %.lr.ph, %24
  %indvars.iv = phi i64 [ 0, %.lr.ph ], [ %indvars.iv.next, %24 ]
  %indvars.iv.next = add nuw nsw i64 %indvars.iv, 1
  %25 = getelementptr inbounds nuw i32, ptr %.01523, i64 %indvars.iv.next
  %26 = load i32, ptr %25, align 4
  %27 = ashr i32 %26, 1
  %28 = sext i32 %27 to i64
  %29 = getelementptr inbounds i32, ptr %.val, i64 %28
  %30 = load i32, ptr %29, align 4
  %31 = add nsw i32 %30, 1
  store i32 %31, ptr %29, align 4
  %32 = icmp samesign ult i64 %indvars.iv.next, %23
  br i1 %32, label %24, label %._crit_edge, !llvm.loop !36

._crit_edge:                                      ; preds = %24, %.preheader.._crit_edge_crit_edge
  %.pre-phi = phi i64 [ %.pre, %.preheader.._crit_edge_crit_edge ], [ %23, %24 ]
  %33 = add nuw nsw i32 %.022, 1
  %34 = getelementptr i32, ptr %.01523, i64 %.pre-phi
  %35 = icmp slt i32 %33, %19
  br i1 %35, label %.preheader, label %._crit_edge24, !llvm.loop !37

._crit_edge24:                                    ; preds = %._crit_edge, %Vec_IntStart.exit
  ret ptr %8
}